target datalayout = "e-m:e-p270:32:32-p271:32:32-p272:64:64-i64:64-i128:128-f80:128-n8:16:32:64-S128"
target triple = "x86_64-pc-linux-gnu"

%union.pthread_mutex_t = type { %struct.__pthread_mutex_s }
%struct.__pthread_mutex_s = type { i32, i32, i32, i32, i32, i16, i16, %struct.__pthread_internal_list }
%struct.__pthread_internal_list = type { ptr, ptr }
%struct.pmix_tma = type { ptr, ptr, ptr, ptr, ptr, ptr, ptr, ptr }
%struct.pmix_pointer_array_t = type { %struct.pmix_object_t, i32, i32, i32, i32, i32, ptr, ptr }
%struct.pmix_object_t = type { %union.pthread_mutex_t, ptr, i32, %struct.pmix_tma }
%struct.pmix_mca_base_var_t = type { %struct.pmix_object_t, i32, i32, i32, ptr, ptr, ptr, ptr, %struct.pmix_value_array_t, i32, i32, i32, ptr, ptr, ptr, i32, ptr, ptr }
%struct.pmix_value_array_t = type { %struct.pmix_object_t, ptr, i64, i64, i64 }
%struct.pmix_mca_base_var_file_value_t = type { %struct.pmix_list_item_t, ptr, ptr, ptr, i32 }
%struct.pmix_list_item_t = type { %struct.pmix_object_t, ptr, ptr, i32 }

@pmix_mca_base_var_initialized = global i8 0, align 1
@pmix_mca_base_vars = internal global %struct.pmix_pointer_array_t zeroinitializer, align 8

; Function Attrs: inlinehint nounwind uwtable
define internal ptr @pmix_pointer_array_get_item(ptr noundef %0, i32 noundef %1) #6 {
  %3 = alloca ptr, align 8
  %4 = alloca ptr, align 8
  %5 = alloca i32, align 4
  %6 = alloca ptr, align 8
  %7 = alloca i32, align 4
  store ptr %0, ptr %4, align 8, !tbaa !90
  store i32 %1, ptr %5, align 4, !tbaa !18
  call void @llvm.lifetime.start.p0(i64 8, ptr %6) #15
  %8 = load i32, ptr %5, align 4, !tbaa !18
  %9 = icmp sgt i32 0, %8
  br i1 %9, label %16, label %10

10:                                               ; preds = %2
  %11 = load ptr, ptr %4, align 8, !tbaa !90
  %12 = getelementptr inbounds nuw %struct.pmix_pointer_array_t, ptr %11, i32 0, i32 3
  %13 = load i32, ptr %12, align 8, !tbaa !92
  %14 = load i32, ptr %5, align 4, !tbaa !18
  %15 = icmp sle i32 %13, %14
  br label %16

16:                                               ; preds = %10, %2
  %17 = phi i1 [ true, %2 ], [ %15, %10 ]
  %18 = xor i1 %17, true
  %19 = xor i1 %18, true
  %20 = zext i1 %19 to i32
  %21 = sext i32 %20 to i64
  %22 = call i64 @llvm.expect.i64(i64 %21, i64 0)
  %23 = icmp ne i64 %22, 0
  br i1 %23, label %24, label %25

24:                                               ; preds = %16
  store ptr null, ptr %3, align 8
  store i32 1, ptr %7, align 4
  br label %34

25:                                               ; preds = %16
  %26 = load ptr, ptr %4, align 8, !tbaa !90
  %27 = getelementptr inbounds nuw %struct.pmix_pointer_array_t, ptr %26, i32 0, i32 7
  %28 = load ptr, ptr %27, align 8, !tbaa !95
  %29 = load i32, ptr %5, align 4, !tbaa !18
  %30 = sext i32 %29 to i64
  %31 = getelementptr inbounds ptr, ptr %28, i64 %30
  %32 = load ptr, ptr %31, align 8, !tbaa !65
  store ptr %32, ptr %6, align 8, !tbaa !65
  %33 = load ptr, ptr %6, align 8, !tbaa !65
  store ptr %33, ptr %3, align 8
  store i32 1, ptr %7, align 4
  br label %34

34:                                               ; preds = %25, %24
  call void @llvm.lifetime.end.p0(i64 8, ptr %6) #15
  %35 = load ptr, ptr %3, align 8
  ret ptr %35
}

; Function Attrs: nounwind uwtable
define internal ptr @pmix_mca_base_var_source_file(ptr noundef %0) #0 {
  %2 = alloca ptr, align 8
  %3 = alloca ptr, align 8
  %4 = alloca ptr, align 8
  %5 = alloca i32, align 4
  store ptr %0, ptr %3, align 8, !tbaa !3
  call void @llvm.lifetime.start.p0(i64 8, ptr %4) #15
  %6 = load ptr, ptr %3, align 8, !tbaa !3
  %7 = getelementptr inbounds nuw %struct.pmix_mca_base_var_t, ptr %6, i32 0, i32 17
  %8 = load ptr, ptr %7, align 8, !tbaa !79
  store ptr %8, ptr %4, align 8, !tbaa !40
  %9 = load ptr, ptr %3, align 8, !tbaa !3
  %10 = getelementptr inbounds nuw %struct.pmix_mca_base_var_t, ptr %9, i32 0, i32 13
  %11 = load ptr, ptr %10, align 8, !tbaa !80
  %12 = icmp ne ptr null, %11
  br i1 %12, label %13, label %17

13:                                               ; preds = %1
  %14 = load ptr, ptr %3, align 8, !tbaa !3
  %15 = getelementptr inbounds nuw %struct.pmix_mca_base_var_t, ptr %14, i32 0, i32 13
  %16 = load ptr, ptr %15, align 8, !tbaa !80
  store ptr %16, ptr %2, align 8
  store i32 1, ptr %5, align 4
  br label %25

17:                                               ; preds = %1
  %18 = load ptr, ptr %4, align 8, !tbaa !40
  %19 = icmp ne ptr %18, null
  br i1 %19, label %20, label %24

20:                                               ; preds = %17
  %21 = load ptr, ptr %4, align 8, !tbaa !40
  %22 = getelementptr inbounds nuw %struct.pmix_mca_base_var_file_value_t, ptr %21, i32 0, i32 3
  %23 = load ptr, ptr %22, align 8, !tbaa !81
  store ptr %23, ptr %2, align 8
  store i32 1, ptr %5, align 4
  br label %25

24:                                               ; preds = %17
  store ptr null, ptr %2, align 8
  store i32 1, ptr %5, align 4
  br label %25

25:                                               ; preds = %24, %20, %13
  call void @llvm.lifetime.end.p0(i64 8, ptr %4) #15
  %26 = load ptr, ptr %2, align 8
  ret ptr %26
}

; Function Attrs: nounwind uwtable
define internal i32 @var_get(i32 noundef %0, ptr noundef %1, i1 noundef zeroext %2) #0 {
  %4 = alloca i32, align 4
  %5 = alloca i32, align 4
  %6 = alloca ptr, align 8
  %7 = alloca i8, align 1
  %8 = alloca ptr, align 8
  %9 = alloca i32, align 4
  store i32 %0, ptr %5, align 4, !tbaa !18
  store ptr %1, ptr %6, align 8, !tbaa !76
  %10 = zext i1 %2 to i8
  store i8 %10, ptr %7, align 1, !tbaa !54
  call void @llvm.lifetime.start.p0(i64 8, ptr %8) #15
  %11 = load ptr, ptr %6, align 8, !tbaa !76
  %12 = icmp ne ptr %11, null
  br i1 %12, label %13, label %15

13:                                               ; preds = %3
  %14 = load ptr, ptr %6, align 8, !tbaa !76
  store ptr null, ptr %14, align 8, !tbaa !3
  br label %15

15:                                               ; preds = %13, %3
  %16 = load i8, ptr @pmix_mca_base_var_initialized, align 1, !tbaa !54, !range !30, !noundef !31
  %17 = trunc i8 %16 to i1
  br i1 %17, label %19, label %18

18:                                               ; preds = %15
  store i32 -1, ptr %4, align 4
  store i32 1, ptr %9, align 4
  br label %52

19:                                               ; preds = %15
  %20 = load i32, ptr %5, align 4, !tbaa !18
  %21 = icmp slt i32 %20, 0
  br i1 %21, label %22, label %23

22:                                               ; preds = %19
  store i32 -27, ptr %4, align 4
  store i32 1, ptr %9, align 4
  br label %52

23:                                               ; preds = %19
  %24 = load i32, ptr %5, align 4, !tbaa !18
  %25 = call ptr @pmix_pointer_array_get_item(ptr noundef @pmix_mca_base_vars, i32 noundef %24)
  store ptr %25, ptr %8, align 8, !tbaa !3
  %26 = load ptr, ptr %8, align 8, !tbaa !3
  %27 = icmp eq ptr null, %26
  br i1 %27, label %28, label %29

28:                                               ; preds = %23
  store i32 -27, ptr %4, align 4
  store i32 1, ptr %9, align 4
  br label %52

29:                                               ; preds = %23
  %30 = load ptr, ptr %8, align 8, !tbaa !3
  %31 = getelementptr inbounds %struct.pmix_mca_base_var_t, ptr %30, i64 0
  %32 = getelementptr inbounds nuw %struct.pmix_mca_base_var_t, ptr %31, i32 0, i32 9
  %33 = load i32, ptr %32, align 8, !tbaa !71
  %34 = and i32 %33, 131072
  %35 = icmp ne i32 %34, 0
  br i1 %35, label %36, label %45

36:                                               ; preds = %29
  %37 = load i8, ptr %7, align 1, !tbaa !54, !range !30, !noundef !31
  %38 = trunc i8 %37 to i1
  br i1 %38, label %39, label %45

39:                                               ; preds = %36
  %40 = load ptr, ptr %8, align 8, !tbaa !3
  %41 = getelementptr inbounds nuw %struct.pmix_mca_base_var_t, ptr %40, i32 0, i32 11
  %42 = load i32, ptr %41, align 8, !tbaa !78
  %43 = load ptr, ptr %6, align 8, !tbaa !76
  %44 = call i32 @var_get(i32 noundef %42, ptr noundef %43, i1 noundef zeroext false)
  store i32 %44, ptr %4, align 4
  store i32 1, ptr %9, align 4
  br label %52

45:                                               ; preds = %36, %29
  %46 = load ptr, ptr %6, align 8, !tbaa !76
  %47 = icmp ne ptr %46, null
  br i1 %47, label %48, label %51

48:                                               ; preds = %45
  %49 = load ptr, ptr %8, align 8, !tbaa !3
  %50 = load ptr, ptr %6, align 8, !tbaa !76
  store ptr %49, ptr %50, align 8, !tbaa !3
  br label %51

51:                                               ; preds = %48, %45
  store i32 0, ptr %4, align 4
  store i32 1, ptr %9, align 4
  br label %52

52:                                               ; preds = %51, %39, %28, %22, %18
  call void @llvm.lifetime.end.p0(i64 8, ptr %8) #15
  %53 = load i32, ptr %4, align 4
  ret i32 %53
}

; Function Attrs: nounwind uwtable
define i32 @pmix_mca_base_var_get_value(i32 noundef %0, ptr noundef %1, ptr noundef %2, ptr noundef %3) #0 {
  %5 = alloca i32, align 4
  %6 = alloca i32, align 4
  %7 = alloca ptr, align 8
  %8 = alloca ptr, align 8
  %9 = alloca ptr, align 8
  %10 = alloca ptr, align 8
  %11 = alloca ptr, align 8
  %12 = alloca i32, align 4
  %13 = alloca i32, align 4
  store i32 %0, ptr %6, align 4, !tbaa !18
  store ptr %1, ptr %7, align 8, !tbaa !65
  store ptr %2, ptr %8, align 8, !tbaa !65
  store ptr %3, ptr %9, align 8, !tbaa !48
  call void @llvm.lifetime.start.p0(i64 8, ptr %10) #15
  call void @llvm.lifetime.start.p0(i64 8, ptr %11) #15
  %14 = load ptr, ptr %7, align 8, !tbaa !65
  store ptr %14, ptr %11, align 8, !tbaa !65
  call void @llvm.lifetime.start.p0(i64 4, ptr %12) #15
  %15 = load i32, ptr %6, align 4, !tbaa !18
  %16 = call i32 @var_get(i32 noundef %15, ptr noundef %10, i1 noundef zeroext true)
  store i32 %16, ptr %12, align 4, !tbaa !18
  %17 = load i32, ptr %12, align 4, !tbaa !18
  %18 = icmp ne i32 0, %17
  br i1 %18, label %19, label %21

19:                                               ; preds = %4
  %20 = load i32, ptr %12, align 4, !tbaa !18
  store i32 %20, ptr %5, align 4
  store i32 1, ptr %13, align 4
  br label %53

21:                                               ; preds = %4
  %22 = load ptr, ptr %10, align 8, !tbaa !3
  %23 = getelementptr inbounds %struct.pmix_mca_base_var_t, ptr %22, i64 0
  %24 = getelementptr inbounds nuw %struct.pmix_mca_base_var_t, ptr %23, i32 0, i32 9
  %25 = load i32, ptr %24, align 8, !tbaa !71
  %26 = and i32 %25, 65536
  %27 = icmp ne i32 %26, 0
  br i1 %27, label %29, label %28

28:                                               ; preds = %21
  store i32 -46, ptr %5, align 4
  store i32 1, ptr %13, align 4
  br label %53

29:                                               ; preds = %21
  %30 = load ptr, ptr %7, align 8, !tbaa !65
  %31 = icmp ne ptr null, %30
  br i1 %31, label %32, label %37

32:                                               ; preds = %29
  %33 = load ptr, ptr %10, align 8, !tbaa !3
  %34 = getelementptr inbounds nuw %struct.pmix_mca_base_var_t, ptr %33, i32 0, i32 16
  %35 = load ptr, ptr %34, align 8, !tbaa !23
  %36 = load ptr, ptr %11, align 8, !tbaa !65
  store ptr %35, ptr %36, align 8, !tbaa !65
  br label %37

37:                                               ; preds = %32, %29
  %38 = load ptr, ptr %8, align 8, !tbaa !65
  %39 = icmp ne ptr null, %38
  br i1 %39, label %40, label %45

40:                                               ; preds = %37
  %41 = load ptr, ptr %10, align 8, !tbaa !3
  %42 = getelementptr inbounds nuw %struct.pmix_mca_base_var_t, ptr %41, i32 0, i32 10
  %43 = load i32, ptr %42, align 4, !tbaa !75
  %44 = load ptr, ptr %8, align 8, !tbaa !65
  store i32 %43, ptr %44, align 4, !tbaa !18
  br label %45

45:                                               ; preds = %40, %37
  %46 = load ptr, ptr %9, align 8, !tbaa !48
  %47 = icmp ne ptr null, %46
  br i1 %47, label %48, label %52

48:                                               ; preds = %45
  %49 = load ptr, ptr %10, align 8, !tbaa !3
  %50 = call ptr @pmix_mca_base_var_source_file(ptr noundef %49)
  %51 = load ptr, ptr %9, align 8, !tbaa !48
  store ptr %50, ptr %51, align 8, !tbaa !47
  br label %52

52:                                               ; preds = %48, %45
  store i32 0, ptr %5, align 4
  store i32 1, ptr %13, align 4
  br label %53

53:                                               ; preds = %52, %28, %19
  call void @llvm.lifetime.end.p0(i64 4, ptr %12) #15
  call void @llvm.lifetime.end.p0(i64 8, ptr %11) #15
  call void @llvm.lifetime.end.p0(i64 8, ptr %10) #15
  %54 = load i32, ptr %5, align 4
  ret i32 %54
}