; Function Attrs: mustprogress nofree norecurse nosync nounwind willreturn memory(read, argmem: readwrite, inaccessiblemem: none) uwtable
define range(i32 -46, 1) i32 @pmix_mca_base_var_get_value(i32 noundef %0, ptr noundef writeonly captures(address_is_null) %1, ptr noundef writeonly captures(address_is_null) %2, ptr noundef writeonly captures(address_is_null) %3) local_unnamed_addr #14 {
  %5 = load i8, ptr @pmix_mca_base_var_initialized, align 1, !tbaa !54, !range !36, !noundef !37
  %6 = trunc nuw i8 %5 to i1
  br i1 %6, label %7, label %var_get.exit.thread

7:                                                ; preds = %4
  %8 = icmp slt i32 %0, 0
  %9 = load i32, ptr getelementptr inbounds nuw (i8, ptr @pmix_mca_base_vars, i64 128), align 8
  %10 = icmp sle i32 %9, %0
  %or.cond.i = select i1 %8, i1 true, i1 %10
  br i1 %or.cond.i, label %var_get.exit.thread, label %pmix_pointer_array_get_item.exit.i, !prof !63

pmix_pointer_array_get_item.exit.i:               ; preds = %7
  %11 = load ptr, ptr getelementptr inbounds nuw (i8, ptr @pmix_mca_base_vars, i64 152), align 8, !tbaa !58
  %12 = zext nneg i32 %0 to i64
  %13 = getelementptr inbounds nuw ptr, ptr %11, i64 %12
  %14 = load ptr, ptr %13, align 8, !tbaa !22
  %15 = icmp eq ptr %14, null
  br i1 %15, label %var_get.exit.thread, label %16

16:                                               ; preds = %pmix_pointer_array_get_item.exit.i
  %17 = getelementptr inbounds nuw i8, ptr %14, i64 320
  %18 = load i32, ptr %17, align 8, !tbaa !61
  %19 = and i32 %18, 131072
  %.not15.i.not = icmp eq i32 %19, 0
  br i1 %.not15.i.not, label %var_get.exit.thread27, label %20

20:                                               ; preds = %16
  %21 = getelementptr inbounds nuw i8, ptr %14, i64 328
  %22 = load i32, ptr %21, align 8, !tbaa !69
  %23 = icmp slt i32 %22, 0
  %24 = icmp sle i32 %9, %22
  %or.cond22.i = select i1 %23, i1 true, i1 %24
  br i1 %or.cond22.i, label %var_get.exit.thread, label %pmix_pointer_array_get_item.exit.i.i, !prof !63

pmix_pointer_array_get_item.exit.i.i:             ; preds = %20
  %25 = zext nneg i32 %22 to i64
  %26 = getelementptr inbounds nuw ptr, ptr %11, i64 %25
  %27 = load ptr, ptr %26, align 8, !tbaa !22
  %28 = icmp eq ptr %27, null
  br i1 %28, label %var_get.exit.thread, label %pmix_pointer_array_get_item.exit.i.i.var_get.exit.thread27_crit_edge

pmix_pointer_array_get_item.exit.i.i.var_get.exit.thread27_crit_edge: ; preds = %pmix_pointer_array_get_item.exit.i.i
  %.phi.trans.insert = getelementptr inbounds nuw i8, ptr %27, i64 320
  %.pre = load i32, ptr %.phi.trans.insert, align 8, !tbaa !61
  br label %var_get.exit.thread27

var_get.exit.thread27:                            ; preds = %pmix_pointer_array_get_item.exit.i.i.var_get.exit.thread27_crit_edge, %16
  %29 = phi i32 [ %18, %16 ], [ %.pre, %pmix_pointer_array_get_item.exit.i.i.var_get.exit.thread27_crit_edge ]
  %.02231 = phi ptr [ %14, %16 ], [ %27, %pmix_pointer_array_get_item.exit.i.i.var_get.exit.thread27_crit_edge ]
  %30 = and i32 %29, 65536
  %.not14 = icmp eq i32 %30, 0
  br i1 %.not14, label %var_get.exit.thread, label %31

31:                                               ; preds = %var_get.exit.thread27
  %.not15 = icmp eq ptr %1, null
  br i1 %.not15, label %35, label %32

32:                                               ; preds = %31
  %33 = getelementptr inbounds nuw i8, ptr %.02231, i64 368
  %34 = load ptr, ptr %33, align 8, !tbaa !29
  store ptr %34, ptr %1, align 8, !tbaa !22
  br label %35

35:                                               ; preds = %32, %31
  %.not16 = icmp eq ptr %2, null
  br i1 %.not16, label %39, label %36

36:                                               ; preds = %35
  %37 = getelementptr inbounds nuw i8, ptr %.02231, i64 324
  %38 = load i32, ptr %37, align 4, !tbaa !70
  store i32 %38, ptr %2, align 4, !tbaa !16
  br label %39

39:                                               ; preds = %36, %35
  %.not17 = icmp eq ptr %3, null
  br i1 %.not17, label %var_get.exit.thread, label %40

40:                                               ; preds = %39
  %41 = getelementptr i8, ptr %.02231, i64 344
  %.val = load ptr, ptr %41, align 8, !tbaa !71
  %42 = getelementptr i8, ptr %.02231, i64 376
  %.val18 = load ptr, ptr %42, align 8, !tbaa !72
  %.not.i = icmp eq ptr %.val, null
  br i1 %.not.i, label %43, label %pmix_mca_base_var_source_file.exit

43:                                               ; preds = %40
  %.not8.i = icmp eq ptr %.val18, null
  br i1 %.not8.i, label %pmix_mca_base_var_source_file.exit, label %44

44:                                               ; preds = %43
  %45 = getelementptr inbounds nuw i8, ptr %.val18, i64 160
  %46 = load ptr, ptr %45, align 8, !tbaa !73
  br label %pmix_mca_base_var_source_file.exit

pmix_mca_base_var_source_file.exit:               ; preds = %40, %43, %44
  %.0.i19 = phi ptr [ %46, %44 ], [ %.val, %40 ], [ null, %43 ]
  store ptr %.0.i19, ptr %3, align 8, !tbaa !51
  br label %var_get.exit.thread

var_get.exit.thread:                              ; preds = %pmix_pointer_array_get_item.exit.i.i, %20, %pmix_pointer_array_get_item.exit.i, %7, %4, %39, %pmix_mca_base_var_source_file.exit, %var_get.exit.thread27
  %.0 = phi i32 [ -46, %var_get.exit.thread27 ], [ 0, %pmix_mca_base_var_source_file.exit ], [ 0, %39 ], [ -27, %20 ], [ -27, %pmix_pointer_array_get_item.exit.i ], [ -27, %7 ], [ -1, %4 ], [ -27, %pmix_pointer_array_get_item.exit.i.i ]
  ret i32 %.0
}